target datalayout = "e-m:e-p270:32:32-p271:32:32-p272:64:64-i64:64-i128:128-f80:128-n8:16:32:64-S128"
target triple = "x86_64-pc-linux-gnu"

%struct.Curl_multi = type { i32, i32, i32, %struct.Curl_llist, %struct.Curl_llist, %struct.Curl_llist, %struct.Curl_llist, i64, ptr, ptr, ptr, ptr, %struct.Curl_hash, ptr, %struct.PslCache, ptr, ptr, i64, ptr, i64, ptr, i64, %struct.Curl_hash, %struct.Curl_hash, %struct.cpool, i64, i64, ptr, ptr, i64, %struct.curltime, [2 x i32], i32, i32, i8, i8 }
%struct.Curl_llist = type { ptr, ptr, ptr, i64 }
%struct.PslCache = type { ptr, i64, i8 }
%struct.Curl_hash = type { ptr, ptr, ptr, ptr, i64, i64 }
%struct.cpool = type { %struct.Curl_hash, i64, i64, i64, %struct.curltime, %struct.Curl_llist, ptr, ptr, ptr, ptr, i8 }
%struct.curltime = type { i64, i32 }
%struct.Curl_llist_node = type { ptr, ptr, ptr, ptr }
%struct.Curl_sh_entry = type { %struct.Curl_hash, i32, i32, ptr, i32, i32 }
%struct.Curl_easy = type { i32, i64, i64, ptr, %struct.Curl_llist_node, %struct.Curl_llist_node, i32, i32, %struct.Curl_message, %struct.easy_pollset, %struct.Names, ptr, ptr, ptr, ptr, %struct.SingleRequest, %struct.UserDefined, ptr, ptr, ptr, %struct.Progress, %struct.UrlState, ptr, %struct.PureInfo, %struct.curl_tlssessioninfo }
%struct.Curl_message = type { %struct.Curl_llist_node, %struct.CURLMsg }
%struct.CURLMsg = type { i32, ptr, %union.anon }
%union.anon = type { ptr }
%struct.easy_pollset = type { [5 x i32], i32, [5 x i8] }
%struct.Names = type { ptr, i32 }
%struct.SingleRequest = type <{ i64, i64, i64, i64, %struct.curltime, i32, i32, i32, i32, i64, i32, i32, i8, i8, [2 x i8], i32, ptr, ptr, %struct.bufq, i64, i64, ptr, ptr, %union.anon.0, ptr, i8, i32, [3 x i8] }>
%struct.bufq = type { ptr, ptr, ptr, ptr, i64, i64, i64, i32 }
%union.anon.0 = type { ptr }
%struct.UserDefined = type <{ ptr, ptr, ptr, ptr, ptr, ptr, i64, i64, i64, ptr, ptr, i64, ptr, ptr, ptr, ptr, ptr, ptr, ptr, ptr, ptr, ptr, ptr, ptr, ptr, ptr, ptr, ptr, ptr, ptr, ptr, ptr, ptr, ptr, ptr, i64, i64, i64, i64, i64, i64, i64, i64, i64, ptr, ptr, %struct.curl_mimepart, ptr, ptr, ptr, i64, %struct.ssl_config_data, %struct.ssl_config_data, ptr, i16, i8, i8, %struct.ssl_general_config, i32, i32, i32, [4 x i8], ptr, ptr, i64, i32, i8, i8, i8, i8, ptr, ptr, ptr, i32, [4 x i8], [74 x ptr], [8 x ptr], i32, i32, i32, [4 x i8], ptr, i32, [4 x i8], ptr, ptr, ptr, ptr, ptr, i32, i32, i32, i32, i32, i32, i32, i32, i64, ptr, ptr, i64, ptr, i64, ptr, ptr, ptr, ptr, i32, i16, i16, i16, i8, i8, i8, i8, i8, i8, i8, i8, i64, [6 x i8] }>
%struct.curl_mimepart = type { ptr, ptr, i32, i32, ptr, ptr, ptr, ptr, ptr, ptr, ptr, ptr, ptr, ptr, ptr, i64, %struct.mime_state, ptr, %struct.mime_encoder_state, i64 }
%struct.mime_state = type { i32, ptr, i64 }
%struct.mime_encoder_state = type { i64, i64, i64, [256 x i8] }
%struct.ssl_config_data = type { %struct.ssl_primary_config, i64, ptr, ptr, ptr, ptr, ptr, ptr, ptr, i16 }
%struct.ssl_primary_config = type { ptr, ptr, ptr, ptr, ptr, ptr, ptr, ptr, ptr, ptr, ptr, ptr, ptr, ptr, i8, i32, i8, i8 }
%struct.ssl_general_config = type { i32 }
%struct.Progress = type { i64, %struct.pgrs_dir, %struct.pgrs_dir, i64, i64, i32, i32, i64, i64, i64, i64, i64, i64, i64, i64, i64, %struct.curltime, %struct.curltime, %struct.curltime, %struct.curltime, %struct.curltime, [6 x i64], [6 x %struct.curltime], i32, i8 }
%struct.pgrs_dir = type { i64, i64, i64, %struct.pgrs_measure }
%struct.pgrs_measure = type { %struct.curltime, i64 }
%struct.UrlState = type { %struct.curltime, i64, i64, %struct.dynbuf, ptr, i64, ptr, i32, i32, i32, ptr, i32, i64, i32, ptr, %struct.digestdata, %struct.digestdata, %struct.auth, %struct.auth, %struct.Curl_async, ptr, i8, %struct.curltime, %struct.Curl_tree, %struct.Curl_llist, [15 x %struct.time_node], ptr, ptr, i64, i64, i64, i64, [32 x i8], i64, ptr, ptr, ptr, %struct.urlpieces, ptr, ptr, ptr, ptr, ptr, i64, %struct.dynbuf, %struct.Curl_llist, [2 x %struct.curl_header], ptr, i32, ptr, ptr, %struct.store_netrc, %struct.dynamically_allocated_data, i8, i8, i8, i8, i32 }
%struct.digestdata = type { ptr, ptr, ptr, ptr, ptr, ptr, i32, i8, i8 }
%struct.auth = type { i64, i64, i64, i8 }
%struct.Curl_async = type { ptr, ptr, ptr, ptr, i32, i32, i8 }
%struct.Curl_tree = type { ptr, ptr, ptr, ptr, %struct.curltime, ptr }
%struct.time_node = type { %struct.Curl_llist_node, %struct.curltime, i32 }
%struct.urlpieces = type { ptr, ptr, ptr, ptr, ptr, ptr, ptr, ptr }
%struct.dynbuf = type { ptr, i64, i64, i64 }
%struct.curl_header = type { ptr, ptr, i64, i64, i32, ptr }
%struct.store_netrc = type { %struct.dynbuf, ptr, i8 }
%struct.dynamically_allocated_data = type { ptr, ptr, ptr, ptr, ptr, ptr, ptr, ptr, ptr, ptr, ptr, ptr, ptr, ptr }
%struct.PureInfo = type { i32, i32, i32, i64, i64, i64, i64, i64, i64, i64, ptr, ptr, i64, i32, %struct.ip_quadruple, i32, ptr, i32, %struct.curl_certinfo, i32, i8 }
%struct.ip_quadruple = type { [46 x i8], [46 x i8], i32, i32 }
%struct.curl_certinfo = type { i32, ptr }
%struct.curl_tlssessioninfo = type { i32, ptr }

; Function Attrs: nounwind uwtable
define internal void @sh_delentry(ptr noundef %0, ptr noundef %1, i32 noundef %2) #0 {
  %4 = alloca ptr, align 8
  %5 = alloca ptr, align 8
  %6 = alloca i32, align 4
  store ptr %0, ptr %4, align 8, !tbaa !39
  store ptr %1, ptr %5, align 8, !tbaa !32
  store i32 %2, ptr %6, align 4, !tbaa !30
  %7 = load ptr, ptr %4, align 8, !tbaa !39
  %8 = getelementptr inbounds nuw %struct.Curl_sh_entry, ptr %7, i32 0, i32 0
  call void @Curl_hash_destroy(ptr noundef %8)
  %9 = load ptr, ptr %5, align 8, !tbaa !32
  %10 = call i32 @Curl_hash_delete(ptr noundef %9, ptr noundef %6, i64 noundef 4)
  ret void
}

; Function Attrs: nounwind uwtable
define internal void @set_in_callback(ptr noundef %0, i1 noundef zeroext %1) #0 {
  %3 = alloca ptr, align 8
  %4 = alloca i8, align 1
  store ptr %0, ptr %3, align 8, !tbaa !9
  %5 = zext i1 %1 to i8
  store i8 %5, ptr %4, align 1, !tbaa !118
  %6 = load i8, ptr %4, align 1, !tbaa !118, !range !120, !noundef !121
  %7 = trunc i8 %6 to i1
  %8 = zext i1 %7 to i32
  %9 = load ptr, ptr %3, align 8, !tbaa !9
  %10 = getelementptr inbounds nuw %struct.Curl_multi, ptr %9, i32 0, i32 35
  %11 = trunc i32 %8 to i8
  %12 = load i8, ptr %10, align 1
  %13 = and i8 %11, 1
  %14 = shl i8 %13, 2
  %15 = and i8 %12, -5
  %16 = or i8 %15, %14
  store i8 %16, ptr %10, align 1
  ret void
}

; Function Attrs: nounwind uwtable
define internal ptr @sh_getentry(ptr noundef %0, i32 noundef %1) #0 {
  %3 = alloca ptr, align 8
  %4 = alloca ptr, align 8
  %5 = alloca i32, align 4
  store ptr %0, ptr %4, align 8, !tbaa !32
  store i32 %1, ptr %5, align 4, !tbaa !30
  %6 = load i32, ptr %5, align 4, !tbaa !30
  %7 = icmp ne i32 %6, -1
  br i1 %7, label %8, label %11

8:                                                ; preds = %2
  %9 = load ptr, ptr %4, align 8, !tbaa !32
  %10 = call ptr @Curl_hash_pick(ptr noundef %9, ptr noundef %5, i64 noundef 4)
  store ptr %10, ptr %3, align 8
  br label %12

11:                                               ; preds = %2
  store ptr null, ptr %3, align 8
  br label %12

12:                                               ; preds = %11, %8
  %13 = load ptr, ptr %3, align 8
  ret ptr %13
}

; Function Attrs: nounwind uwtable
define hidden void @Curl_multi_closed(ptr noundef %0, i32 noundef %1) #0 {
  %3 = alloca ptr, align 8
  %4 = alloca i32, align 4
  %5 = alloca ptr, align 8
  %6 = alloca ptr, align 8
  %7 = alloca i32, align 4
  store ptr %0, ptr %3, align 8, !tbaa !43
  store i32 %1, ptr %4, align 4, !tbaa !30
  %8 = load ptr, ptr %3, align 8, !tbaa !43
  %9 = icmp ne ptr %8, null
  br i1 %9, label %10, label %65

10:                                               ; preds = %2
  call void @llvm.lifetime.start.p0(i64 8, ptr %5) #9
  %11 = load ptr, ptr %3, align 8, !tbaa !43
  %12 = getelementptr inbounds nuw %struct.Curl_easy, ptr %11, i32 0, i32 11
  %13 = load ptr, ptr %12, align 8, !tbaa !100
  store ptr %13, ptr %5, align 8, !tbaa !9
  br label %14

14:                                               ; preds = %10
  br label %15

15:                                               ; preds = %14
  br label %16

16:                                               ; preds = %15
  %17 = load ptr, ptr %5, align 8, !tbaa !9
  %18 = icmp ne ptr %17, null
  br i1 %18, label %19, label %64

19:                                               ; preds = %16
  call void @llvm.lifetime.start.p0(i64 8, ptr %6) #9
  %20 = load ptr, ptr %5, align 8, !tbaa !9
  %21 = getelementptr inbounds nuw %struct.Curl_multi, ptr %20, i32 0, i32 22
  %22 = load i32, ptr %4, align 4, !tbaa !30
  %23 = call ptr @sh_getentry(ptr noundef %21, i32 noundef %22)
  store ptr %23, ptr %6, align 8, !tbaa !39
  br label %24

24:                                               ; preds = %19
  br label %25

25:                                               ; preds = %24
  br label %26

26:                                               ; preds = %25
  %27 = load ptr, ptr %6, align 8, !tbaa !39
  %28 = icmp ne ptr %27, null
  br i1 %28, label %29, label %63

29:                                               ; preds = %26
  call void @llvm.lifetime.start.p0(i64 4, ptr %7) #9
  store i32 0, ptr %7, align 4, !tbaa !30
  %30 = load ptr, ptr %5, align 8, !tbaa !9
  %31 = getelementptr inbounds nuw %struct.Curl_multi, ptr %30, i32 0, i32 8
  %32 = load ptr, ptr %31, align 8, !tbaa !228
  %33 = icmp ne ptr %32, null
  br i1 %33, label %34, label %49

34:                                               ; preds = %29
  %35 = load ptr, ptr %5, align 8, !tbaa !9
  call void @set_in_callback(ptr noundef %35, i1 noundef zeroext true)
  %36 = load ptr, ptr %5, align 8, !tbaa !9
  %37 = getelementptr inbounds nuw %struct.Curl_multi, ptr %36, i32 0, i32 8
  %38 = load ptr, ptr %37, align 8, !tbaa !228
  %39 = load ptr, ptr %3, align 8, !tbaa !43
  %40 = load i32, ptr %4, align 4, !tbaa !30
  %41 = load ptr, ptr %5, align 8, !tbaa !9
  %42 = getelementptr inbounds nuw %struct.Curl_multi, ptr %41, i32 0, i32 9
  %43 = load ptr, ptr %42, align 8, !tbaa !229
  %44 = load ptr, ptr %6, align 8, !tbaa !39
  %45 = getelementptr inbounds nuw %struct.Curl_sh_entry, ptr %44, i32 0, i32 3
  %46 = load ptr, ptr %45, align 8, !tbaa !230
  %47 = call i32 %38(ptr noundef %39, i32 noundef %40, i32 noundef 4, ptr noundef %43, ptr noundef %46)
  store i32 %47, ptr %7, align 4, !tbaa !30
  %48 = load ptr, ptr %5, align 8, !tbaa !9
  call void @set_in_callback(ptr noundef %48, i1 noundef zeroext false)
  br label %49

49:                                               ; preds = %34, %29
  %50 = load ptr, ptr %6, align 8, !tbaa !39
  %51 = load ptr, ptr %5, align 8, !tbaa !9
  %52 = getelementptr inbounds nuw %struct.Curl_multi, ptr %51, i32 0, i32 22
  %53 = load i32, ptr %4, align 4, !tbaa !30
  call void @sh_delentry(ptr noundef %50, ptr noundef %52, i32 noundef %53)
  %54 = load i32, ptr %7, align 4, !tbaa !30
  %55 = icmp eq i32 %54, -1
  br i1 %55, label %56, label %62

56:                                               ; preds = %49
  %57 = load ptr, ptr %5, align 8, !tbaa !9
  %58 = getelementptr inbounds nuw %struct.Curl_multi, ptr %57, i32 0, i32 35
  %59 = load i8, ptr %58, align 1
  %60 = and i8 %59, -17
  %61 = or i8 %60, 16
  store i8 %61, ptr %58, align 1
  br label %62

62:                                               ; preds = %56, %49
  call void @llvm.lifetime.end.p0(i64 4, ptr %7) #9
  br label %63

63:                                               ; preds = %62, %26
  call void @llvm.lifetime.end.p0(i64 8, ptr %6) #9
  br label %64

64:                                               ; preds = %63, %16
  call void @llvm.lifetime.end.p0(i64 8, ptr %5) #9
  br label %65

65:                                               ; preds = %64, %2
  ret void
}