; Function Attrs: nounwind uwtable
define hidden void @Curl_multi_closed(ptr noundef %0, i32 noundef %1) local_unnamed_addr #0 {
  %3 = alloca i32, align 4
  %4 = alloca i32, align 4
  %5 = alloca i32, align 4
  %.not = icmp eq ptr %0, null
  br i1 %.not, label %32, label %6

6:                                                ; preds = %2
  %7 = getelementptr inbounds nuw i8, ptr %0, i64 208
  %8 = load ptr, ptr %7, align 8, !tbaa !92
  %.not21 = icmp eq ptr %8, null
  br i1 %.not21, label %32, label %9

9:                                                ; preds = %6
  %10 = getelementptr inbounds nuw i8, ptr %8, i64 320
  call void @llvm.lifetime.start.p0(i64 4, ptr nonnull %5)
  store i32 %1, ptr %5, align 4, !tbaa !28
  %.not.i = icmp eq i32 %1, -1
  br i1 %.not.i, label %sh_getentry.exit.thread, label %sh_getentry.exit

sh_getentry.exit.thread:                          ; preds = %9
  call void @llvm.lifetime.end.p0(i64 4, ptr nonnull %5)
  br label %32

sh_getentry.exit:                                 ; preds = %9
  %11 = call ptr @Curl_hash_pick(ptr noundef nonnull %10, ptr noundef nonnull %5, i64 noundef 4) #19
  call void @llvm.lifetime.end.p0(i64 4, ptr nonnull %5)
  %.not22 = icmp eq ptr %11, null
  br i1 %.not22, label %32, label %12

12:                                               ; preds = %sh_getentry.exit
  %13 = getelementptr inbounds nuw i8, ptr %8, i64 152
  %14 = load ptr, ptr %13, align 8, !tbaa !215
  %.not23 = icmp eq ptr %14, null
  br i1 %.not23, label %.critedge, label %15

15:                                               ; preds = %12
  %16 = getelementptr inbounds nuw i8, ptr %8, i64 649
  %17 = load i8, ptr %16, align 1
  %18 = or i8 %17, 4
  store i8 %18, ptr %16, align 1
  %19 = getelementptr inbounds nuw i8, ptr %8, i64 160
  %20 = load ptr, ptr %19, align 8, !tbaa !216
  %21 = getelementptr inbounds nuw i8, ptr %11, i64 56
  %22 = load ptr, ptr %21, align 8, !tbaa !217
  %23 = call i32 %14(ptr noundef nonnull %0, i32 noundef %1, i32 noundef 4, ptr noundef %20, ptr noundef %22) #19
  %24 = load i8, ptr %16, align 1
  %25 = and i8 %24, -5
  store i8 %25, ptr %16, align 1
  %26 = icmp eq i32 %23, -1
  call void @llvm.lifetime.start.p0(i64 4, ptr nonnull %4)
  store i32 %1, ptr %4, align 4, !tbaa !28
  call void @Curl_hash_destroy(ptr noundef nonnull %11) #19
  %27 = call i32 @Curl_hash_delete(ptr noundef nonnull %10, ptr noundef nonnull %4, i64 noundef 4) #19
  call void @llvm.lifetime.end.p0(i64 4, ptr nonnull %4)
  br i1 %26, label %28, label %32

28:                                               ; preds = %15
  %29 = load i8, ptr %16, align 1
  %30 = or i8 %29, 16
  store i8 %30, ptr %16, align 1
  br label %32

.critedge:                                        ; preds = %12
  call void @llvm.lifetime.start.p0(i64 4, ptr nonnull %3)
  store i32 %1, ptr %3, align 4, !tbaa !28
  call void @Curl_hash_destroy(ptr noundef nonnull %11) #19
  %31 = call i32 @Curl_hash_delete(ptr noundef nonnull %10, ptr noundef nonnull %3, i64 noundef 4) #19
  call void @llvm.lifetime.end.p0(i64 4, ptr nonnull %3)
  br label %32

32:                                               ; preds = %sh_getentry.exit.thread, %6, %15, %28, %.critedge, %sh_getentry.exit, %2
  ret void
}